---
triple:          'arm64-apple-darwin'
binary-path:     emulator_test
relocations:
  - { offset: 0x26, size: 0x8, addend: 0x0, symName: _main, symObjAddr: 0x0, symBinAddr: 0x1000044AC, symSize: 0x2C }
  - { offset: 0x33, size: 0x8, addend: 0x0, symName: _main, symObjAddr: 0x0, symBinAddr: 0x1000044AC, symSize: 0x2C }
  - { offset: 0x3568, size: 0x8, addend: 0x0, symName: __ZNSt3__124__put_character_sequenceB8ne180100IcNS_11char_traitsIcEEEERNS_13basic_ostreamIT_T0_EES7_PKS4_m, symObjAddr: 0xC9C, symBinAddr: 0x100005174, symSize: 0x1EC }
  - { offset: 0x43F4, size: 0x8, addend: 0x0, symName: __ZNSt3__14fillB8ne180100IPhiEEvT_S2_RKT0_, symObjAddr: 0xB4, symBinAddr: 0x10000458C, symSize: 0x34 }
  - { offset: 0x444A, size: 0x8, addend: 0x0, symName: __ZNSt3__15beginB8ne180100IhLm65536EEEPT_RAT0__S1_, symObjAddr: 0xE8, symBinAddr: 0x1000045C0, symSize: 0x14 }
  - { offset: 0x448B, size: 0x8, addend: 0x0, symName: __ZNSt3__13endB8ne180100IhLm65536EEEPT_RAT0__S1_, symObjAddr: 0xFC, symBinAddr: 0x1000045D4, symSize: 0x18 }
  - { offset: 0x44CC, size: 0x8, addend: 0x0, symName: __ZNSt3__1lsB8ne180100INS_11char_traitsIcEEEERNS_13basic_ostreamIcT_EES6_PKc, symObjAddr: 0x970, symBinAddr: 0x100004E48, symSize: 0x48 }
  - { offset: 0x4512, size: 0x8, addend: 0x0, symName: __ZNSt3__13hexB8ne180100ERNS_8ios_baseE, symObjAddr: 0x9F8, symBinAddr: 0x100004ED0, symSize: 0x30 }
  - { offset: 0x4540, size: 0x8, addend: 0x0, symName: __ZNSt3__13decB8ne180100ERNS_8ios_baseE, symObjAddr: 0xA28, symBinAddr: 0x100004F00, symSize: 0x30 }
  - { offset: 0x456E, size: 0x8, addend: 0x0, symName: __ZNSt3__14endlB8ne180100IcNS_11char_traitsIcEEEERNS_13basic_ostreamIT_T0_EES7_, symObjAddr: 0xA84, symBinAddr: 0x100004F5C, symSize: 0x58 }
  - { offset: 0x45AE, size: 0x8, addend: 0x0, symName: __ZNSt3__16__fillB8ne180100IPhiEEvT_S2_RKT0_NS_26random_access_iterator_tagE, symObjAddr: 0xBA4, symBinAddr: 0x10000507C, symSize: 0x3C }
  - { offset: 0x460E, size: 0x8, addend: 0x0, symName: __ZNSt3__16fill_nB8ne180100IPhliEET_S2_T0_RKT1_, symObjAddr: 0xBE0, symBinAddr: 0x1000050B8, symSize: 0x44 }
  - { offset: 0x4671, size: 0x8, addend: 0x0, symName: __ZNSt3__18__fill_nB8ne180100IPhliEET_S2_T0_RKT1_, symObjAddr: 0xC24, symBinAddr: 0x1000050FC, symSize: 0x64 }
  - { offset: 0x46D4, size: 0x8, addend: 0x0, symName: __ZNSt3__121__convert_to_integralB8ne180100El, symObjAddr: 0xC88, symBinAddr: 0x100005160, symSize: 0x14 }
  - { offset: 0x4700, size: 0x8, addend: 0x0, symName: __ZNSt3__116__pad_and_outputB8ne180100IcNS_11char_traitsIcEEEENS_19ostreambuf_iteratorIT_T0_EES6_PKS4_S8_S8_RNS_8ios_baseES4_, symObjAddr: 0xED8, symBinAddr: 0x1000053B0, symSize: 0x240 }
  - { offset: 0x47CF, size: 0x8, addend: 0x0, symName: __ZNSt3__112__to_addressB8ne180100IcEEPT_S2_, symObjAddr: 0x1450, symBinAddr: 0x100005928, symSize: 0x14 }
  - { offset: 0x4837, size: 0x8, addend: 0x0, symName: __ZNSt3__19use_facetB8ne180100INS_5ctypeIcEEEERKT_RKNS_6localeE, symObjAddr: 0x1708, symBinAddr: 0x100005BE0, symSize: 0x2C }
  - { offset: 0x4D04, size: 0x8, addend: 0x0, symName: __ZNSt3__118__constexpr_strlenB8ne180100EPKc, symObjAddr: 0x17A0, symBinAddr: 0x100005C78, symSize: 0x24 }
  - { offset: 0x5F1B, size: 0x8, addend: 0x0, symName: __ZN3CPUC2Ev, symObjAddr: 0x0, symBinAddr: 0x1000044D8, symSize: 0xB4 }
  - { offset: 0x5F45, size: 0x8, addend: 0x0, symName: __ZN3CPUC1Ev, symObjAddr: 0x114, symBinAddr: 0x1000045EC, symSize: 0x2C }
  - { offset: 0x5F6F, size: 0x8, addend: 0x0, symName: __ZN3CPU7setFlagENS_5FlagsEb, symObjAddr: 0x140, symBinAddr: 0x100004618, symSize: 0x7C }
  - { offset: 0x5FB1, size: 0x8, addend: 0x0, symName: __ZNK3CPU7getFlagENS_5FlagsE, symObjAddr: 0x1BC, symBinAddr: 0x100004694, symSize: 0x34 }
  - { offset: 0x5FE5, size: 0x8, addend: 0x0, symName: __ZN3CPU11writeMemoryEth, symObjAddr: 0x1F0, symBinAddr: 0x1000046C8, symSize: 0x2C }
  - { offset: 0x6027, size: 0x8, addend: 0x0, symName: __ZN3CPU10readMemoryEt, symObjAddr: 0x21C, symBinAddr: 0x1000046F4, symSize: 0x20 }
  - { offset: 0x605B, size: 0x8, addend: 0x0, symName: __ZN3CPU9pushStackEh, symObjAddr: 0x23C, symBinAddr: 0x100004714, symSize: 0x48 }
  - { offset: 0x608F, size: 0x8, addend: 0x0, symName: __ZN3CPU4stepEv, symObjAddr: 0x284, symBinAddr: 0x10000475C, symSize: 0x16C }
  - { offset: 0x60C3, size: 0x8, addend: 0x0, symName: __ZN3CPU3LDAEtNS_14AddressingModeE, symObjAddr: 0x3F0, symBinAddr: 0x1000048C8, symSize: 0x190 }
  - { offset: 0x6113, size: 0x8, addend: 0x0, symName: __ZN3CPU3TAXEv, symObjAddr: 0x5A4, symBinAddr: 0x100004A7C, symSize: 0x7C }
  - { offset: 0x6139, size: 0x8, addend: 0x0, symName: __ZN3CPU3INXEv, symObjAddr: 0x620, symBinAddr: 0x100004AF8, symSize: 0x7C }
  - { offset: 0x615F, size: 0x8, addend: 0x0, symName: __ZN3CPU3BRKEv, symObjAddr: 0x69C, symBinAddr: 0x100004B74, symSize: 0xF4 }
  - { offset: 0x61AF, size: 0x8, addend: 0x0, symName: __ZNSt16invalid_argumentC1B8ne180100EPKc, symObjAddr: 0x790, symBinAddr: 0x100004C68, symSize: 0x34 }
  - { offset: 0x61E5, size: 0x8, addend: 0x0, symName: __ZN3CPU3STAEtNS_14AddressingModeE, symObjAddr: 0x7C4, symBinAddr: 0x100004C9C, symSize: 0x18C }
  - { offset: 0x6235, size: 0x8, addend: 0x0, symName: __ZNSt3__113basic_ostreamIcNS_11char_traitsIcEEElsB8ne180100EPFRNS_8ios_baseES5_E, symObjAddr: 0x9B8, symBinAddr: 0x100004E90, symSize: 0x40 }
  - { offset: 0x6267, size: 0x8, addend: 0x0, symName: __ZNSt3__113basic_ostreamIcNS_11char_traitsIcEEElsB8ne180100EPFRS3_S4_E, symObjAddr: 0xA58, symBinAddr: 0x100004F30, symSize: 0x2C }
  - { offset: 0x6299, size: 0x8, addend: 0x0, symName: __ZNSt16invalid_argumentC2B8ne180100EPKc, symObjAddr: 0xADC, symBinAddr: 0x100004FB4, symSize: 0x44 }
  - { offset: 0x62CF, size: 0x8, addend: 0x0, symName: __ZNSt3__18ios_base4setfB8ne180100Ejj, symObjAddr: 0xB20, symBinAddr: 0x100004FF8, symSize: 0x5C }
  - { offset: 0x6322, size: 0x8, addend: 0x0, symName: __ZNSt3__18ios_base6unsetfB8ne180100Ej, symObjAddr: 0xB7C, symBinAddr: 0x100005054, symSize: 0x28 }
  - { offset: 0x6357, size: 0x8, addend: 0x0, symName: __ZNSt3__111char_traitsIcE6lengthB8ne180100EPKc, symObjAddr: 0xE88, symBinAddr: 0x100005360, symSize: 0x34 }
  - { offset: 0x6397, size: 0x8, addend: 0x0, symName: __ZNKSt3__113basic_ostreamIcNS_11char_traitsIcEEE6sentrycvbB8ne180100Ev, symObjAddr: 0xEBC, symBinAddr: 0x100005394, symSize: 0x1C }
  - { offset: 0x63BB, size: 0x8, addend: 0x0, symName: __ZNSt3__119ostreambuf_iteratorIcNS_11char_traitsIcEEEC1B8ne180100ERNS_13basic_ostreamIcS2_EE, symObjAddr: 0x1118, symBinAddr: 0x1000055F0, symSize: 0x34 }
  - { offset: 0x63F1, size: 0x8, addend: 0x0, symName: __ZNKSt3__18ios_base5flagsB8ne180100Ev, symObjAddr: 0x114C, symBinAddr: 0x100005624, symSize: 0x18 }
  - { offset: 0x6417, size: 0x8, addend: 0x0, symName: __ZNKSt3__19basic_iosIcNS_11char_traitsIcEEE4fillB8ne180100Ev, symObjAddr: 0x1164, symBinAddr: 0x10000563C, symSize: 0x64 }
  - { offset: 0x643D, size: 0x8, addend: 0x0, symName: __ZNKSt3__119ostreambuf_iteratorIcNS_11char_traitsIcEEE6failedB8ne180100Ev, symObjAddr: 0x11C8, symBinAddr: 0x1000056A0, symSize: 0x24 }
  - { offset: 0x6461, size: 0x8, addend: 0x0, symName: __ZNSt3__19basic_iosIcNS_11char_traitsIcEEE8setstateB8ne180100Ej, symObjAddr: 0x11EC, symBinAddr: 0x1000056C4, symSize: 0x2C }
  - { offset: 0x6494, size: 0x8, addend: 0x0, symName: __ZNKSt3__18ios_base5widthB8ne180100Ev, symObjAddr: 0x1228, symBinAddr: 0x100005700, symSize: 0x18 }
  - { offset: 0x64BA, size: 0x8, addend: 0x0, symName: __ZNSt3__115basic_streambufIcNS_11char_traitsIcEEE5sputnB8ne180100EPKcl, symObjAddr: 0x1240, symBinAddr: 0x100005718, symSize: 0x3C }
  - { offset: 0x64FA, size: 0x8, addend: 0x0, symName: __ZNSt3__112basic_stringIcNS_11char_traitsIcEENS_9allocatorIcEEEC1B8ne180100Emc, symObjAddr: 0x127C, symBinAddr: 0x100005754, symSize: 0x3C }
  - { offset: 0x6540, size: 0x8, addend: 0x0, symName: __ZNSt3__112basic_stringIcNS_11char_traitsIcEENS_9allocatorIcEEE4dataB8ne180100Ev, symObjAddr: 0x12B8, symBinAddr: 0x100005790, symSize: 0x28 }
  - { offset: 0x6564, size: 0x8, addend: 0x0, symName: __ZNSt3__18ios_base5widthB8ne180100El, symObjAddr: 0x12E0, symBinAddr: 0x1000057B8, symSize: 0x2C }
  - { offset: 0x65A8, size: 0x8, addend: 0x0, symName: __ZNSt3__112basic_stringIcNS_11char_traitsIcEENS_9allocatorIcEEEC2B8ne180100Emc, symObjAddr: 0x130C, symBinAddr: 0x1000057E4, symSize: 0x4C }
  - { offset: 0x65F3, size: 0x8, addend: 0x0, symName: __ZNSt3__117__compressed_pairINS_12basic_stringIcNS_11char_traitsIcEENS_9allocatorIcEEE5__repES5_EC1B8ne180100INS_18__default_init_tagESA_EEOT_OT0_, symObjAddr: 0x1358, symBinAddr: 0x100005830, symSize: 0x3C }
  - { offset: 0x6649, size: 0x8, addend: 0x0, symName: __ZNSt3__117__compressed_pairINS_12basic_stringIcNS_11char_traitsIcEENS_9allocatorIcEEE5__repES5_EC2B8ne180100INS_18__default_init_tagESA_EEOT_OT0_, symObjAddr: 0x1394, symBinAddr: 0x10000586C, symSize: 0x3C }
  - { offset: 0x669F, size: 0x8, addend: 0x0, symName: __ZNSt3__122__compressed_pair_elemINS_12basic_stringIcNS_11char_traitsIcEENS_9allocatorIcEEE5__repELi0ELb0EEC2B8ne180100ENS_18__default_init_tagE, symObjAddr: 0x13D0, symBinAddr: 0x1000058A8, symSize: 0x14 }
  - { offset: 0x66D1, size: 0x8, addend: 0x0, symName: __ZNSt3__122__compressed_pair_elemINS_9allocatorIcEELi1ELb1EEC2B8ne180100ENS_18__default_init_tagE, symObjAddr: 0x13E4, symBinAddr: 0x1000058BC, symSize: 0x2C }
  - { offset: 0x6703, size: 0x8, addend: 0x0, symName: __ZNSt3__19allocatorIcEC2B8ne180100Ev, symObjAddr: 0x1410, symBinAddr: 0x1000058E8, symSize: 0x2C }
  - { offset: 0x672B, size: 0x8, addend: 0x0, symName: __ZNSt3__116__non_trivial_ifILb1ENS_9allocatorIcEEEC2B8ne180100Ev, symObjAddr: 0x143C, symBinAddr: 0x100005914, symSize: 0x14 }
  - { offset: 0x6753, size: 0x8, addend: 0x0, symName: __ZNSt3__112basic_stringIcNS_11char_traitsIcEENS_9allocatorIcEEE13__get_pointerB8ne180100Ev, symObjAddr: 0x1464, symBinAddr: 0x10000593C, symSize: 0x54 }
  - { offset: 0x6777, size: 0x8, addend: 0x0, symName: __ZNKSt3__112basic_stringIcNS_11char_traitsIcEENS_9allocatorIcEEE9__is_longB8ne180100Ev, symObjAddr: 0x14B8, symBinAddr: 0x100005990, symSize: 0x38 }
  - { offset: 0x679B, size: 0x8, addend: 0x0, symName: __ZNSt3__112basic_stringIcNS_11char_traitsIcEENS_9allocatorIcEEE18__get_long_pointerB8ne180100Ev, symObjAddr: 0x14F0, symBinAddr: 0x1000059C8, symSize: 0x28 }
  - { offset: 0x67BF, size: 0x8, addend: 0x0, symName: __ZNSt3__112basic_stringIcNS_11char_traitsIcEENS_9allocatorIcEEE19__get_short_pointerB8ne180100Ev, symObjAddr: 0x1518, symBinAddr: 0x1000059F0, symSize: 0x28 }
  - { offset: 0x67E3, size: 0x8, addend: 0x0, symName: __ZNKSt3__117__compressed_pairINS_12basic_stringIcNS_11char_traitsIcEENS_9allocatorIcEEE5__repES5_E5firstB8ne180100Ev, symObjAddr: 0x1540, symBinAddr: 0x100005A18, symSize: 0x24 }
  - { offset: 0x6807, size: 0x8, addend: 0x0, symName: __ZNKSt3__122__compressed_pair_elemINS_12basic_stringIcNS_11char_traitsIcEENS_9allocatorIcEEE5__repELi0ELb0EE5__getB8ne180100Ev, symObjAddr: 0x1564, symBinAddr: 0x100005A3C, symSize: 0x14 }
  - { offset: 0x682B, size: 0x8, addend: 0x0, symName: __ZNSt3__117__compressed_pairINS_12basic_stringIcNS_11char_traitsIcEENS_9allocatorIcEEE5__repES5_E5firstB8ne180100Ev, symObjAddr: 0x1578, symBinAddr: 0x100005A50, symSize: 0x24 }
  - { offset: 0x684F, size: 0x8, addend: 0x0, symName: __ZNSt3__122__compressed_pair_elemINS_12basic_stringIcNS_11char_traitsIcEENS_9allocatorIcEEE5__repELi0ELb0EE5__getB8ne180100Ev, symObjAddr: 0x159C, symBinAddr: 0x100005A74, symSize: 0x14 }
  - { offset: 0x6873, size: 0x8, addend: 0x0, symName: __ZNSt3__114pointer_traitsIPcE10pointer_toB8ne180100ERc, symObjAddr: 0x15B0, symBinAddr: 0x100005A88, symSize: 0x14 }
  - { offset: 0x6895, size: 0x8, addend: 0x0, symName: __ZNSt3__119ostreambuf_iteratorIcNS_11char_traitsIcEEEC2B8ne180100ERNS_13basic_ostreamIcS2_EE, symObjAddr: 0x15C4, symBinAddr: 0x100005A9C, symSize: 0x54 }
  - { offset: 0x68CB, size: 0x8, addend: 0x0, symName: __ZNKSt3__19basic_iosIcNS_11char_traitsIcEEE5rdbufB8ne180100Ev, symObjAddr: 0x1618, symBinAddr: 0x100005AF0, symSize: 0x24 }
  - { offset: 0x68F1, size: 0x8, addend: 0x0, symName: __ZNKSt3__18ios_base5rdbufB8ne180100Ev, symObjAddr: 0x163C, symBinAddr: 0x100005B14, symSize: 0x18 }
  - { offset: 0x6915, size: 0x8, addend: 0x0, symName: __ZNSt3__111char_traitsIcE11eq_int_typeB8ne180100Eii, symObjAddr: 0x1654, symBinAddr: 0x100005B2C, symSize: 0x28 }
  - { offset: 0x6947, size: 0x8, addend: 0x0, symName: __ZNSt3__111char_traitsIcE3eofB8ne180100Ev, symObjAddr: 0x167C, symBinAddr: 0x100005B54, symSize: 0x8 }
  - { offset: 0x695A, size: 0x8, addend: 0x0, symName: __ZNKSt3__19basic_iosIcNS_11char_traitsIcEEE5widenB8ne180100Ec, symObjAddr: 0x1684, symBinAddr: 0x100005B5C, symSize: 0x84 }
  - { offset: 0x69D1, size: 0x8, addend: 0x0, symName: __ZNKSt3__15ctypeIcE5widenB8ne180100Ec, symObjAddr: 0x1734, symBinAddr: 0x100005C0C, symSize: 0x38 }
  - { offset: 0x6A04, size: 0x8, addend: 0x0, symName: __ZNSt3__18ios_base8setstateB8ne180100Ej, symObjAddr: 0x176C, symBinAddr: 0x100005C44, symSize: 0x34 }
  - { offset: 0x9891, size: 0x8, addend: 0x0, symName: __Z18test_initial_statev, symObjAddr: 0x0, symBinAddr: 0x100005C9C, symSize: 0x2C8 }
  - { offset: 0x98BA, size: 0x8, addend: 0x0, symName: __Z14test_set_flagsv, symObjAddr: 0x394, symBinAddr: 0x100005F64, symSize: 0x14C }
  - { offset: 0x98E3, size: 0x8, addend: 0x0, symName: __Z3LDAv, symObjAddr: 0x4E0, symBinAddr: 0x1000060B0, symSize: 0x5E4 }
  - { offset: 0x991A, size: 0x8, addend: 0x0, symName: __Z3STAv, symObjAddr: 0xAC4, symBinAddr: 0x100006694, symSize: 0x618 }
  - { offset: 0x9952, size: 0x8, addend: 0x0, symName: __Z7testTAXv, symObjAddr: 0x10EC, symBinAddr: 0x100006CAC, symSize: 0x1CC }
  - { offset: 0x997A, size: 0x8, addend: 0x0, symName: __Z7testBRKv, symObjAddr: 0x12B8, symBinAddr: 0x100006E78, symSize: 0x1C4 }
  - { offset: 0x99B0, size: 0x8, addend: 0x0, symName: __Z7testINXv, symObjAddr: 0x147C, symBinAddr: 0x10000703C, symSize: 0x25C }
  - { offset: 0x99D8, size: 0x8, addend: 0x0, symName: __Z24testMachineCodeExecutionv, symObjAddr: 0x16D8, symBinAddr: 0x100007298, symSize: 0x34C }
  - { offset: 0x9A00, size: 0x8, addend: 0x0, symName: __Z8CPU_testv, symObjAddr: 0x1A24, symBinAddr: 0x1000075E4, symSize: 0x7C }
...
